target datalayout = "e-m:e-p270:32:32-p271:32:32-p272:64:64-i64:64-i128:128-f80:128-n8:16:32:64-S128"
target triple = "x86_64-pc-linux-gnu"

%"class.google::protobuf::internal::LogMessage" = type { i32, ptr, i32, %"class.std::__cxx11::basic_string" }
%"class.std::__cxx11::basic_string" = type { %"struct.std::__cxx11::basic_string<char>::_Alloc_hider", i64, %union.anon }
%"struct.std::__cxx11::basic_string<char>::_Alloc_hider" = type { ptr }
%union.anon = type { i64, [8 x i8] }
%"class.google::protobuf::internal::LogFinisher" = type { i8 }
%"class.google::protobuf::io::FileOutputStream::CopyingFileOutputStream" = type <{ %"class.google::protobuf::io::CopyingOutputStream", i32, i8, i8, [2 x i8], i32, [4 x i8] }>
%"class.google::protobuf::io::CopyingOutputStream" = type { ptr }

@.str = private unnamed_addr constant [157 x i8] c"generated/home/dtcxzyw/WorkSpace/Projects/compilers/llvm-opt-benchmark/bench/opencv/opencv/3rdparty/protobuf/src/google/protobuf/io/zero_copy_stream_impl.cc\00", align 1
@.str.2 = private unnamed_addr constant [28 x i8] c"CHECK failed: !is_closed_: \00", align 1

; Function Attrs: mustprogress uwtable
define hidden noundef zeroext i1 @_ZN6google8protobuf2io16FileOutputStream23CopyingFileOutputStream5WriteEPKvi(ptr noundef nonnull align 8 dereferenceable(20) %0, ptr noundef %1, i32 noundef %2) unnamed_addr #4 align 2 personality ptr @__gxx_personality_v0 {
  %4 = alloca i1, align 1
  %5 = alloca ptr, align 8
  %6 = alloca ptr, align 8
  %7 = alloca i32, align 4
  %8 = alloca %"class.google::protobuf::internal::LogMessage", align 8
  %9 = alloca i1, align 1
  %10 = alloca i1, align 1
  %11 = alloca ptr, align 8
  %12 = alloca i32, align 4
  %13 = alloca %"class.google::protobuf::internal::LogFinisher", align 1
  %14 = alloca i32, align 4
  %15 = alloca ptr, align 8
  %16 = alloca i32, align 4
  %17 = alloca i32, align 4
  store ptr %0, ptr %5, align 8, !tbaa !39
  store ptr %1, ptr %6, align 8, !tbaa !34
  store i32 %2, ptr %7, align 4, !tbaa !8
  %18 = load ptr, ptr %5, align 8
  %19 = getelementptr inbounds nuw %"class.google::protobuf::io::FileOutputStream::CopyingFileOutputStream", ptr %18, i32 0, i32 3
  %20 = load i8, ptr %19, align 1, !tbaa !41, !range !20, !noundef !21
  %21 = trunc i8 %20 to i1
  store i1 false, ptr %9, align 1
  store i1 false, ptr %10, align 1
  call void @llvm.lifetime.start.p0(i64 1, ptr %13) #3
  br i1 %21, label %23, label %22

22:                                               ; preds = %3
  br label %27

23:                                               ; preds = %3
  call void @llvm.lifetime.start.p0(i64 56, ptr %8) #3
  store i1 true, ptr %9, align 1
  call void @_ZN6google8protobuf8internal10LogMessageC1ENS0_8LogLevelEPKci(ptr noundef nonnull align 8 dereferenceable(56) %8, i32 noundef 3, ptr noundef @.str, i32 noundef 216)
  store i1 true, ptr %10, align 1
  %24 = invoke noundef nonnull align 8 dereferenceable(56) ptr @_ZN6google8protobuf8internal10LogMessagelsEPKc(ptr noundef nonnull align 8 dereferenceable(56) %8, ptr noundef @.str.2)
          to label %25 unwind label %72

25:                                               ; preds = %23
  invoke void @_ZN6google8protobuf8internal11LogFinisheraSERNS1_10LogMessageE(ptr noundef nonnull align 1 dereferenceable(1) %13, ptr noundef nonnull align 8 dereferenceable(56) %24)
          to label %26 unwind label %76

26:                                               ; preds = %25
  br label %27

27:                                               ; preds = %26, %22
  call void @llvm.lifetime.end.p0(i64 1, ptr %13) #3
  %28 = load i1, ptr %10, align 1
  br i1 %28, label %29, label %30

29:                                               ; preds = %27
  call void @_ZN6google8protobuf8internal10LogMessageD1Ev(ptr noundef nonnull align 8 dereferenceable(56) %8) #3
  br label %30

30:                                               ; preds = %29, %27
  %31 = load i1, ptr %9, align 1
  br i1 %31, label %32, label %33

32:                                               ; preds = %30
  call void @llvm.lifetime.end.p0(i64 56, ptr %8) #3
  br label %33

33:                                               ; preds = %32, %30
  call void @llvm.lifetime.start.p0(i64 4, ptr %14) #3
  store i32 0, ptr %14, align 4, !tbaa !8
  call void @llvm.lifetime.start.p0(i64 8, ptr %15) #3
  %34 = load ptr, ptr %6, align 8, !tbaa !34
  store ptr %34, ptr %15, align 8, !tbaa !49
  br label %35

35:                                               ; preds = %94, %33
  %36 = load i32, ptr %14, align 4, !tbaa !8
  %37 = load i32, ptr %7, align 4, !tbaa !8
  %38 = icmp slt i32 %36, %37
  br i1 %38, label %39, label %95

39:                                               ; preds = %35
  call void @llvm.lifetime.start.p0(i64 4, ptr %16) #3
  br label %40

40:                                               ; preds = %60, %39
  %41 = getelementptr inbounds nuw %"class.google::protobuf::io::FileOutputStream::CopyingFileOutputStream", ptr %18, i32 0, i32 1
  %42 = load i32, ptr %41, align 8, !tbaa !44
  %43 = load ptr, ptr %15, align 8, !tbaa !49
  %44 = load i32, ptr %14, align 4, !tbaa !8
  %45 = sext i32 %44 to i64
  %46 = getelementptr inbounds i8, ptr %43, i64 %45
  %47 = load i32, ptr %7, align 4, !tbaa !8
  %48 = load i32, ptr %14, align 4, !tbaa !8
  %49 = sub nsw i32 %47, %48
  %50 = sext i32 %49 to i64
  %51 = call i64 @write(i32 noundef %42, ptr noundef %46, i64 noundef %50)
  %52 = trunc i64 %51 to i32
  store i32 %52, ptr %16, align 4, !tbaa !8
  br label %53

53:                                               ; preds = %40
  %54 = load i32, ptr %16, align 4, !tbaa !8
  %55 = icmp slt i32 %54, 0
  br i1 %55, label %56, label %60

56:                                               ; preds = %53
  %57 = call ptr @__errno_location() #12
  %58 = load i32, ptr %57, align 4, !tbaa !8
  %59 = icmp eq i32 %58, 4
  br label %60

60:                                               ; preds = %56, %53
  %61 = phi i1 [ false, %53 ], [ %59, %56 ]
  br i1 %61, label %40, label %62, !llvm.loop !51

62:                                               ; preds = %60
  %63 = load i32, ptr %16, align 4, !tbaa !8
  %64 = icmp sle i32 %63, 0
  br i1 %64, label %65, label %88

65:                                               ; preds = %62
  %66 = load i32, ptr %16, align 4, !tbaa !8
  %67 = icmp slt i32 %66, 0
  br i1 %67, label %68, label %87

68:                                               ; preds = %65
  %69 = call ptr @__errno_location() #12
  %70 = load i32, ptr %69, align 4, !tbaa !8
  %71 = getelementptr inbounds nuw %"class.google::protobuf::io::FileOutputStream::CopyingFileOutputStream", ptr %18, i32 0, i32 5
  store i32 %70, ptr %71, align 8, !tbaa !45
  br label %87

72:                                               ; preds = %23
  %73 = landingpad { ptr, i32 }
          cleanup
  %74 = extractvalue { ptr, i32 } %73, 0
  store ptr %74, ptr %11, align 8
  %75 = extractvalue { ptr, i32 } %73, 1
  store i32 %75, ptr %12, align 4
  br label %80

76:                                               ; preds = %25
  %77 = landingpad { ptr, i32 }
          cleanup
  %78 = extractvalue { ptr, i32 } %77, 0
  store ptr %78, ptr %11, align 8
  %79 = extractvalue { ptr, i32 } %77, 1
  store i32 %79, ptr %12, align 4
  call void @llvm.lifetime.end.p0(i64 1, ptr %13) #3
  br label %80

80:                                               ; preds = %76, %72
  %81 = load i1, ptr %10, align 1
  br i1 %81, label %82, label %83

82:                                               ; preds = %80
  call void @_ZN6google8protobuf8internal10LogMessageD1Ev(ptr noundef nonnull align 8 dereferenceable(56) %8) #3
  br label %83

83:                                               ; preds = %82, %80
  %84 = load i1, ptr %9, align 1
  br i1 %84, label %85, label %86

85:                                               ; preds = %83
  call void @llvm.lifetime.end.p0(i64 56, ptr %8) #3
  br label %86

86:                                               ; preds = %85, %83
  br label %98

87:                                               ; preds = %68, %65
  store i1 false, ptr %4, align 1
  store i32 1, ptr %17, align 4
  br label %92

88:                                               ; preds = %62
  %89 = load i32, ptr %16, align 4, !tbaa !8
  %90 = load i32, ptr %14, align 4, !tbaa !8
  %91 = add nsw i32 %90, %89
  store i32 %91, ptr %14, align 4, !tbaa !8
  store i32 0, ptr %17, align 4
  br label %92

92:                                               ; preds = %88, %87
  call void @llvm.lifetime.end.p0(i64 4, ptr %16) #3
  %93 = load i32, ptr %17, align 4
  switch i32 %93, label %96 [
    i32 0, label %94
  ]

94:                                               ; preds = %92
  br label %35, !llvm.loop !52

95:                                               ; preds = %35
  store i1 true, ptr %4, align 1
  store i32 1, ptr %17, align 4
  br label %96

96:                                               ; preds = %95, %92
  call void @llvm.lifetime.end.p0(i64 8, ptr %15) #3
  call void @llvm.lifetime.end.p0(i64 4, ptr %14) #3
  %97 = load i1, ptr %4, align 1
  ret i1 %97

98:                                               ; preds = %86
  %99 = load ptr, ptr %11, align 8
  %100 = load i32, ptr %12, align 4
  %101 = insertvalue { ptr, i32 } poison, ptr %99, 0
  %102 = insertvalue { ptr, i32 } %101, i32 %100, 1
  resume { ptr, i32 } %102
}