; Function Attrs: mustprogress uwtable
define hidden noundef zeroext i1 @_ZN6google8protobuf2io16FileOutputStream23CopyingFileOutputStream5WriteEPKvi(ptr noundef nonnull align 8 captures(none) dereferenceable(20) %0, ptr noundef readonly captures(none) %1, i32 noundef %2) unnamed_addr #3 align 2 personality ptr @__gxx_personality_v0 {
  %4 = alloca %"class.google::protobuf::internal::LogMessage", align 8
  %5 = alloca %"class.google::protobuf::internal::LogFinisher", align 1
  %6 = getelementptr inbounds nuw i8, ptr %0, i64 13
  %7 = load i8, ptr %6, align 1, !tbaa !26, !range !16, !noundef !17
  %8 = trunc nuw i8 %7 to i1
  call void @llvm.lifetime.start.p0(i64 1, ptr nonnull %5) #15
  br i1 %8, label %9, label %12

9:                                                ; preds = %3
  call void @llvm.lifetime.start.p0(i64 56, ptr nonnull %4) #15
  call void @_ZN6google8protobuf8internal10LogMessageC1ENS0_8LogLevelEPKci(ptr noundef nonnull align 8 dereferenceable(56) %4, i32 noundef 3, ptr noundef nonnull @.str, i32 noundef 216)
  %10 = invoke noundef nonnull align 8 dereferenceable(56) ptr @_ZN6google8protobuf8internal10LogMessagelsEPKc(ptr noundef nonnull align 8 dereferenceable(56) %4, ptr noundef nonnull @.str.2)
          to label %11 unwind label %30

11:                                               ; preds = %9
  invoke void @_ZN6google8protobuf8internal11LogFinisheraSERNS1_10LogMessageE(ptr noundef nonnull align 1 dereferenceable(1) %5, ptr noundef nonnull align 8 dereferenceable(56) %10)
          to label %13 unwind label %32

12:                                               ; preds = %3
  call void @llvm.lifetime.end.p0(i64 1, ptr nonnull %5) #15
  br label %.critedge33

13:                                               ; preds = %11
  call void @llvm.lifetime.end.p0(i64 1, ptr nonnull %5) #15
  call void @_ZN6google8protobuf8internal10LogMessageD1Ev(ptr noundef nonnull align 8 dereferenceable(56) %4) #15
  call void @llvm.lifetime.end.p0(i64 56, ptr nonnull %4) #15
  br label %.critedge33

.critedge33:                                      ; preds = %12, %13
  %14 = icmp slt i32 %2, 1
  br i1 %14, label %.thread35, label %.preheader.lr.ph

.preheader.lr.ph:                                 ; preds = %.critedge33
  %15 = getelementptr inbounds nuw i8, ptr %0, i64 8
  br label %.preheader

.preheader:                                       ; preds = %.critedge, %.preheader.lr.ph
  %.02240 = phi i32 [ 0, %.preheader.lr.ph ], [ %29, %.critedge ]
  %16 = zext nneg i32 %.02240 to i64
  %17 = getelementptr inbounds nuw i8, ptr %1, i64 %16
  %18 = sub nsw i32 %2, %.02240
  %19 = sext i32 %18 to i64
  br label %20

20:                                               ; preds = %.preheader, %25
  %21 = load i32, ptr %15, align 8, !tbaa !22
  %22 = call i64 @write(i32 noundef %21, ptr noundef %17, i64 noundef %19)
  %23 = trunc i64 %22 to i32
  %24 = icmp slt i32 %23, 0
  br i1 %24, label %25, label %.critedge

25:                                               ; preds = %20
  %26 = tail call ptr @__errno_location() #16
  %27 = load i32, ptr %26, align 4, !tbaa !18
  %28 = icmp eq i32 %27, 4
  br i1 %28, label %20, label %35, !llvm.loop !28

.critedge:                                        ; preds = %20
  %.not.not = icmp ne i32 %23, 0
  %29 = add nuw nsw i32 %.02240, %23
  %.not42 = icmp slt i32 %29, %2
  %or.cond = select i1 %.not.not, i1 %.not42, i1 false
  br i1 %or.cond, label %.preheader, label %.thread35, !llvm.loop !29

30:                                               ; preds = %9
  %31 = landingpad { ptr, i32 }
          cleanup
  br label %34

32:                                               ; preds = %11
  %33 = landingpad { ptr, i32 }
          cleanup
  call void @llvm.lifetime.end.p0(i64 1, ptr nonnull %5) #15
  br label %34

34:                                               ; preds = %30, %32
  %.pn = phi { ptr, i32 } [ %33, %32 ], [ %31, %30 ]
  call void @_ZN6google8protobuf8internal10LogMessageD1Ev(ptr noundef nonnull align 8 dereferenceable(56) %4) #15
  call void @llvm.lifetime.end.p0(i64 56, ptr nonnull %4) #15
  resume { ptr, i32 } %.pn

35:                                               ; preds = %25
  %36 = getelementptr inbounds nuw i8, ptr %0, i64 16
  store i32 %27, ptr %36, align 8, !tbaa !27
  br label %.thread35, !llvm.loop !29

.thread35:                                        ; preds = %.critedge, %.critedge33, %35
  %37 = phi i1 [ false, %35 ], [ true, %.critedge33 ], [ %.not.not, %.critedge ]
  ret i1 %37
}